target datalayout = "e-m:e-p270:32:32-p271:32:32-p272:64:64-i64:64-i128:128-f80:128-n8:16:32:64-S128"
target triple = "x86_64-pc-linux-gnu"

%struct.PJconsts = type { ptr, ptr, ptr, ptr, ptr, ptr, ptr, ptr, ptr, ptr, ptr, ptr, i32, ptr, ptr, ptr, ptr, ptr, ptr, ptr, ptr, double, double, double, double, double, double, double, double, double, double, double, double, double, double, double, double, double, double, double, double, double, double, i32, i32, i32, i32, i32, i32, i32, i32, i32, i32, i32, ptr, ptr, ptr, ptr, ptr, ptr, double, double, double, double, double, double, double, double, double, double, double, i32, [7 x double], i32, ptr, ptr, double, double, i32, [4 x i8], %"class.std::shared_ptr", i8, double, i8, %"class.std::__cxx11::basic_string", %"class.std::__cxx11::basic_string", %"class.std::__cxx11::basic_string", i8, %"class.std::vector", i32, %"class.std::vector.3", i32, i8, i8, i8, ptr }
%"class.std::shared_ptr" = type { %"class.std::__shared_ptr" }
%"class.std::__shared_ptr" = type { ptr, %"class.std::__shared_count" }
%"class.std::__shared_count" = type { ptr }
%"class.std::__cxx11::basic_string" = type { %"struct.std::__cxx11::basic_string<char>::_Alloc_hider", i64, %union.anon }
%"struct.std::__cxx11::basic_string<char>::_Alloc_hider" = type { ptr }
%union.anon = type { i64, [8 x i8] }
%"class.std::vector" = type { %"struct.std::_Vector_base" }
%"struct.std::_Vector_base" = type { %"struct.std::_Vector_base<osgeo::proj::operation::GridDescription, std::allocator<osgeo::proj::operation::GridDescription>>::_Vector_impl" }
%"struct.std::_Vector_base<osgeo::proj::operation::GridDescription, std::allocator<osgeo::proj::operation::GridDescription>>::_Vector_impl" = type { %"struct.std::_Vector_base<osgeo::proj::operation::GridDescription, std::allocator<osgeo::proj::operation::GridDescription>>::_Vector_impl_data" }
%"struct.std::_Vector_base<osgeo::proj::operation::GridDescription, std::allocator<osgeo::proj::operation::GridDescription>>::_Vector_impl_data" = type { ptr, ptr, ptr }
%"class.std::vector.3" = type { %"struct.std::_Vector_base.4" }
%"struct.std::_Vector_base.4" = type { %"struct.std::_Vector_base<PJCoordOperation, std::allocator<PJCoordOperation>>::_Vector_impl" }
%"struct.std::_Vector_base<PJCoordOperation, std::allocator<PJCoordOperation>>::_Vector_impl" = type { %"struct.std::_Vector_base<PJCoordOperation, std::allocator<PJCoordOperation>>::_Vector_impl_data" }
%"struct.std::_Vector_base<PJCoordOperation, std::allocator<PJCoordOperation>>::_Vector_impl_data" = type { ptr, ptr, ptr }
%"struct.(anonymous namespace)::pj_poly_data" = type { double, ptr }
%struct.PJ_LP = type { double, double }
%struct.PJ_XY = type { double, double }

; Function Attrs: mustprogress uwtable
define internal { double, double } @_ZL14poly_e_forward5PJ_LPP8PJconsts(double %0, double %1, ptr noundef %2) #0 {
  %4 = alloca %struct.PJ_XY, align 8
  %5 = alloca %struct.PJ_LP, align 8
  %6 = alloca ptr, align 8
  %7 = alloca ptr, align 8
  %8 = alloca double, align 8
  %9 = alloca double, align 8
  %10 = alloca double, align 8
  %11 = getelementptr inbounds nuw { double, double }, ptr %5, i32 0, i32 0
  store double %0, ptr %11, align 8
  %12 = getelementptr inbounds nuw { double, double }, ptr %5, i32 0, i32 1
  store double %1, ptr %12, align 8
  store ptr %2, ptr %6, align 8, !tbaa !3
  call void @llvm.memset.p0.i64(ptr align 8 %4, i8 0, i64 16, i1 false)
  call void @llvm.lifetime.start.p0(i64 8, ptr %7) #8
  %13 = load ptr, ptr %6, align 8, !tbaa !3
  %14 = getelementptr inbounds nuw %struct.PJconsts, ptr %13, i32 0, i32 11
  %15 = load ptr, ptr %14, align 8, !tbaa !43
  store ptr %15, ptr %7, align 8, !tbaa !41
  call void @llvm.lifetime.start.p0(i64 8, ptr %8) #8
  call void @llvm.lifetime.start.p0(i64 8, ptr %9) #8
  call void @llvm.lifetime.start.p0(i64 8, ptr %10) #8
  %16 = getelementptr inbounds nuw %struct.PJ_LP, ptr %5, i32 0, i32 1
  %17 = load double, ptr %16, align 8, !tbaa !60
  %18 = call double @llvm.fabs.f64(double %17)
  %19 = fcmp ole double %18, 1.000000e-10
  br i1 %19, label %20, label %29

20:                                               ; preds = %3
  %21 = getelementptr inbounds nuw %struct.PJ_LP, ptr %5, i32 0, i32 0
  %22 = load double, ptr %21, align 8, !tbaa !58
  %23 = getelementptr inbounds nuw %struct.PJ_XY, ptr %4, i32 0, i32 0
  store double %22, ptr %23, align 8, !tbaa !57
  %24 = load ptr, ptr %7, align 8, !tbaa !41
  %25 = getelementptr inbounds nuw %"struct.(anonymous namespace)::pj_poly_data", ptr %24, i32 0, i32 0
  %26 = load double, ptr %25, align 8, !tbaa !52
  %27 = fneg double %26
  %28 = getelementptr inbounds nuw %struct.PJ_XY, ptr %4, i32 0, i32 1
  store double %27, ptr %28, align 8, !tbaa !55
  br label %80

29:                                               ; preds = %3
  %30 = getelementptr inbounds nuw %struct.PJ_LP, ptr %5, i32 0, i32 1
  %31 = load double, ptr %30, align 8, !tbaa !60
  %32 = call double @sin(double noundef %31) #8, !tbaa !51
  store double %32, ptr %9, align 8, !tbaa !61
  %33 = getelementptr inbounds nuw %struct.PJ_LP, ptr %5, i32 0, i32 1
  %34 = load double, ptr %33, align 8, !tbaa !60
  %35 = call double @cos(double noundef %34) #8, !tbaa !51
  store double %35, ptr %10, align 8, !tbaa !61
  %36 = load double, ptr %10, align 8, !tbaa !61
  %37 = call double @llvm.fabs.f64(double %36)
  %38 = fcmp ogt double %37, 1.000000e-10
  br i1 %38, label %39, label %48

39:                                               ; preds = %29
  %40 = load double, ptr %9, align 8, !tbaa !61
  %41 = load double, ptr %10, align 8, !tbaa !61
  %42 = load ptr, ptr %6, align 8, !tbaa !3
  %43 = getelementptr inbounds nuw %struct.PJconsts, ptr %42, i32 0, i32 27
  %44 = load double, ptr %43, align 8, !tbaa !45
  %45 = call noundef double @_Z7pj_msfnddd(double noundef %40, double noundef %41, double noundef %44)
  %46 = load double, ptr %9, align 8, !tbaa !61
  %47 = fdiv double %45, %46
  br label %49

48:                                               ; preds = %29
  br label %49

49:                                               ; preds = %48, %39
  %50 = phi double [ %47, %39 ], [ 0.000000e+00, %48 ]
  store double %50, ptr %8, align 8, !tbaa !61
  %51 = load double, ptr %9, align 8, !tbaa !61
  %52 = getelementptr inbounds nuw %struct.PJ_LP, ptr %5, i32 0, i32 0
  %53 = load double, ptr %52, align 8, !tbaa !58
  %54 = fmul double %53, %51
  store double %54, ptr %52, align 8, !tbaa !58
  %55 = load double, ptr %8, align 8, !tbaa !61
  %56 = getelementptr inbounds nuw %struct.PJ_LP, ptr %5, i32 0, i32 0
  %57 = load double, ptr %56, align 8, !tbaa !58
  %58 = call double @sin(double noundef %57) #8, !tbaa !51
  %59 = fmul double %55, %58
  %60 = getelementptr inbounds nuw %struct.PJ_XY, ptr %4, i32 0, i32 0
  store double %59, ptr %60, align 8, !tbaa !57
  %61 = getelementptr inbounds nuw %struct.PJ_LP, ptr %5, i32 0, i32 1
  %62 = load double, ptr %61, align 8, !tbaa !60
  %63 = load double, ptr %9, align 8, !tbaa !61
  %64 = load double, ptr %10, align 8, !tbaa !61
  %65 = load ptr, ptr %7, align 8, !tbaa !41
  %66 = getelementptr inbounds nuw %"struct.(anonymous namespace)::pj_poly_data", ptr %65, i32 0, i32 1
  %67 = load ptr, ptr %66, align 8, !tbaa !47
  %68 = call noundef double @_Z7pj_mlfndddPKd(double noundef %62, double noundef %63, double noundef %64, ptr noundef %67)
  %69 = load ptr, ptr %7, align 8, !tbaa !41
  %70 = getelementptr inbounds nuw %"struct.(anonymous namespace)::pj_poly_data", ptr %69, i32 0, i32 0
  %71 = load double, ptr %70, align 8, !tbaa !52
  %72 = fsub double %68, %71
  %73 = load double, ptr %8, align 8, !tbaa !61
  %74 = getelementptr inbounds nuw %struct.PJ_LP, ptr %5, i32 0, i32 0
  %75 = load double, ptr %74, align 8, !tbaa !58
  %76 = call double @cos(double noundef %75) #8, !tbaa !51
  %77 = fsub double 1.000000e+00, %76
  %78 = call double @llvm.fmuladd.f64(double %73, double %77, double %72)
  %79 = getelementptr inbounds nuw %struct.PJ_XY, ptr %4, i32 0, i32 1
  store double %78, ptr %79, align 8, !tbaa !55
  br label %80

80:                                               ; preds = %49, %20
  call void @llvm.lifetime.end.p0(i64 8, ptr %10) #8
  call void @llvm.lifetime.end.p0(i64 8, ptr %9) #8
  call void @llvm.lifetime.end.p0(i64 8, ptr %8) #8
  call void @llvm.lifetime.end.p0(i64 8, ptr %7) #8
  %81 = load { double, double }, ptr %4, align 8
  ret { double, double } %81
}