; Function Attrs: mustprogress uwtable
define internal { double, double } @_ZL14poly_e_forward5PJ_LPP8PJconsts(double %0, double %1, ptr noundef readonly captures(none) %2) #0 {
  %4 = getelementptr inbounds nuw i8, ptr %2, i64 88
  %5 = load ptr, ptr %4, align 8, !tbaa !40
  %6 = tail call double @llvm.fabs.f64(double %1)
  %7 = fcmp ugt double %6, 1.000000e-10
  br i1 %7, label %11, label %8

8:                                                ; preds = %3
  %9 = load double, ptr %5, align 8, !tbaa !49
  %10 = fneg double %9
  br label %34

11:                                               ; preds = %3
  %12 = tail call double @sin(double noundef %1) #8, !tbaa !48
  %13 = tail call double @cos(double noundef %1) #8, !tbaa !48
  %14 = tail call double @llvm.fabs.f64(double %13)
  %15 = fcmp ogt double %14, 1.000000e-10
  br i1 %15, label %16, label %21

16:                                               ; preds = %11
  %17 = getelementptr inbounds nuw i8, ptr %2, i64 216
  %18 = load double, ptr %17, align 8, !tbaa !42
  %19 = tail call noundef double @_Z7pj_msfnddd(double noundef %12, double noundef %13, double noundef %18)
  %20 = fdiv double %19, %12
  br label %21

21:                                               ; preds = %11, %16
  %22 = phi double [ %20, %16 ], [ 0.000000e+00, %11 ]
  %23 = fmul double %0, %12
  %24 = tail call double @sin(double noundef %23) #8, !tbaa !48
  %25 = fmul double %22, %24
  %26 = getelementptr inbounds nuw i8, ptr %5, i64 8
  %27 = load ptr, ptr %26, align 8, !tbaa !44
  %28 = tail call noundef double @_Z7pj_mlfndddPKd(double noundef %1, double noundef %12, double noundef %13, ptr noundef %27)
  %29 = load double, ptr %5, align 8, !tbaa !49
  %30 = fsub double %28, %29
  %31 = tail call double @cos(double noundef %23) #8, !tbaa !48
  %32 = fsub double 1.000000e+00, %31
  %33 = tail call double @llvm.fmuladd.f64(double %22, double %32, double %30)
  br label %34

34:                                               ; preds = %21, %8
  %.sroa.4.0 = phi double [ %10, %8 ], [ %33, %21 ]
  %.sroa.020.0 = phi double [ %0, %8 ], [ %25, %21 ]
  %.fca.0.insert = insertvalue { double, double } poison, double %.sroa.020.0, 0
  %.fca.1.insert = insertvalue { double, double } %.fca.0.insert, double %.sroa.4.0, 1
  ret { double, double } %.fca.1.insert
}